target datalayout = "e-m:e-p270:32:32-p271:32:32-p272:64:64-i64:64-i128:128-f80:128-n8:16:32:64-S128"
target triple = "x86_64-unknown-linux-gnu"

%struct.mz_zip_archive = type { i64, i64, i32, i32, i32, i32, i64, ptr, ptr, ptr, ptr, ptr, ptr, ptr, ptr, ptr }

; Function Attrs: nounwind uwtable
define hidden i32 @zip_stream_extract(ptr noundef %stream, i64 noundef %size, ptr noundef %dir, ptr noundef %on_extract, ptr noundef %arg) #0 {
entry:
  %retval = alloca i32, align 4
  %stream.addr = alloca ptr, align 8
  %size.addr = alloca i64, align 8
  %dir.addr = alloca ptr, align 8
  %on_extract.addr = alloca ptr, align 8
  %arg.addr = alloca ptr, align 8
  %zip_archive = alloca %struct.mz_zip_archive, align 8
  store ptr %stream, ptr %stream.addr, align 8
  store i64 %size, ptr %size.addr, align 8
  store ptr %dir, ptr %dir.addr, align 8
  store ptr %on_extract, ptr %on_extract.addr, align 8
  store ptr %arg, ptr %arg.addr, align 8
  %0 = load ptr, ptr %stream.addr, align 8
  %tobool = icmp ne ptr %0, null
  br i1 %tobool, label %lor.lhs.false, label %if.then

lor.lhs.false:                                    ; preds = %entry
  %1 = load ptr, ptr %dir.addr, align 8
  %tobool1 = icmp ne ptr %1, null
  br i1 %tobool1, label %if.end, label %if.then

if.then:                                          ; preds = %lor.lhs.false, %entry
  store i32 -1, ptr %retval, align 4
  br label %return

if.end:                                           ; preds = %lor.lhs.false
  call void @llvm.memset.p0.i64(ptr align 8 %zip_archive, i8 0, i64 112, i1 false)
  %tobool2 = icmp ne ptr %zip_archive, null
  br i1 %tobool2, label %if.end4, label %if.then3

if.then3:                                         ; preds = %if.end
  store i32 -7, ptr %retval, align 4
  br label %return

if.end4:                                          ; preds = %if.end
  %2 = load ptr, ptr %stream.addr, align 8
  %3 = load i64, ptr %size.addr, align 8
  %call = call i32 @mz_zip_reader_init_mem(ptr noundef %zip_archive, ptr noundef %2, i64 noundef %3, i32 noundef 0)
  %tobool5 = icmp ne i32 %call, 0
  br i1 %tobool5, label %if.end7, label %if.then6

if.then6:                                         ; preds = %if.end4
  store i32 -1, ptr %retval, align 4
  br label %return

if.end7:                                          ; preds = %if.end4
  %4 = load ptr, ptr %dir.addr, align 8
  %5 = load ptr, ptr %on_extract.addr, align 8
  %6 = load ptr, ptr %arg.addr, align 8
  %call8 = call i32 @zip_archive_extract(ptr noundef %zip_archive, ptr noundef %4, ptr noundef %5, ptr noundef %6)
  store i32 %call8, ptr %retval, align 4
  br label %return

return:                                           ; preds = %if.end7, %if.then6, %if.then3, %if.then
  %7 = load i32, ptr %retval, align 4
  ret i32 %7
}