; Function Attrs: nounwind uwtable
define hidden range(i32 -25, 1) i32 @zip_stream_extract(ptr noundef %stream, i64 noundef %size, ptr noundef readonly %dir, ptr noundef %on_extract, ptr noundef %arg) local_unnamed_addr #4 {
entry:
  %zip_archive = alloca %struct.mz_zip_archive, align 8
  %tobool = icmp ne ptr %stream, null
  %tobool1 = icmp ne ptr %dir, null
  %or.cond = and i1 %tobool, %tobool1
  br i1 %or.cond, label %if.end, label %return

if.end:                                           ; preds = %entry
  call void @llvm.memset.p0.i64(ptr noundef nonnull align 8 dereferenceable(112) %zip_archive, i8 0, i64 112, i1 false)
  %call = call i32 @mz_zip_reader_init_mem(ptr noundef nonnull %zip_archive, ptr noundef nonnull %stream, i64 noundef %size, i32 noundef 0)
  %tobool5.not = icmp eq i32 %call, 0
  br i1 %tobool5.not, label %return, label %if.end7

if.end7:                                          ; preds = %if.end
  %call8 = call fastcc i32 @zip_archive_extract(ptr noundef %zip_archive, ptr noundef %dir, ptr noundef %on_extract, ptr noundef %arg)
  br label %return

return:                                           ; preds = %if.end, %entry, %if.end7
  %retval.0 = phi i32 [ %call8, %if.end7 ], [ -1, %entry ], [ -1, %if.end ]
  ret i32 %retval.0
}